; Function Attrs: mustprogress uwtable
define hidden void @_ZNK4cvc58internal16DTypeConstructor11getSelectorEm(ptr noalias sret(%"class.cvc5::internal::NodeTemplate") align 8 %agg.result, ptr nocapture noundef nonnull readonly align 8 dereferenceable(264) %this, i64 noundef %index) local_unnamed_addr #3 align 2 {
entry:
  %d_args = getelementptr inbounds i8, ptr %this, i64 80
  %0 = load ptr, ptr %d_args, align 8
  %add.ptr.i = getelementptr inbounds %"class.std::shared_ptr", ptr %0, i64 %index
  %1 = load ptr, ptr %add.ptr.i, align 8
  tail call void @_ZNK4cvc58internal13DTypeSelector11getSelectorEv(ptr sret(%"class.cvc5::internal::NodeTemplate") align 8 %agg.result, ptr noundef nonnull align 8 dereferenceable(57) %1)
  ret void
}